; Function Attrs: mustprogress uwtable
define dso_local noundef ptr @_ZN4Luau19ConstraintGenerator13freshTypePackERKSt10shared_ptrINS_5ScopeEE(ptr noundef nonnull readonly align 8 captures(none) dereferenceable(472) %0, ptr noundef nonnull readonly align 8 captures(none) dereferenceable(16) %1) local_unnamed_addr #5 align 2 personality ptr @__gxx_personality_v0 {
  %3 = alloca %"struct.Luau::FreeTypePack", align 8
  %4 = alloca %"struct.Luau::TypePackVar", align 8
  %5 = alloca %"class.Luau::Variant.478", align 8
  call void @llvm.lifetime.start.p0(i64 24, ptr nonnull %3) #28
  %6 = load ptr, ptr %1, align 8, !tbaa !133
  call void @_ZN4Luau12FreeTypePackC1EPNS_5ScopeE(ptr noundef nonnull align 8 dereferenceable(24) %3, ptr noundef %6)
  %7 = getelementptr inbounds nuw i8, ptr %0, i64 48
  %8 = load ptr, ptr %7, align 8, !tbaa !50
  call void @llvm.lifetime.start.p0(i64 72, ptr nonnull %5) #28
  store i32 2, ptr %5, align 8, !tbaa !291
  %9 = getelementptr inbounds nuw i8, ptr %5, i64 8
  call void @llvm.memcpy.p0.p0.i64(ptr noundef nonnull align 8 dereferenceable(24) %9, ptr noundef nonnull align 8 dereferenceable(24) %3, i64 24, i1 false), !tbaa.struct !293
  invoke void @_ZN4Luau11TypePackVarC1EONS_7VariantIJNS_9Unifiable5BoundIPKS0_EENS2_5ErrorIS5_EENS_12FreeTypePackENS_15GenericTypePackENS_8TypePackENS_16VariadicTypePackENS_15BlockedTypePackENS_28TypeFunctionInstanceTypePackEEEE(ptr noundef nonnull align 8 dereferenceable(88) %4, ptr noundef nonnull align 8 dereferenceable(72) %5)
          to label %10 unwind label %28

10:                                               ; preds = %2
  %11 = invoke noundef ptr @_ZN4Luau9TypeArena11addTypePackENS_11TypePackVarE(ptr noundef nonnull align 8 dereferenceable(88) %8, ptr noundef nonnull %4)
          to label %12 unwind label %30

12:                                               ; preds = %10
  %13 = load i32, ptr %4, align 8, !tbaa !291
  %14 = sext i32 %13 to i64
  %15 = getelementptr inbounds [8 x ptr], ptr @_ZN4Luau7VariantIJNS_9Unifiable5BoundIPKNS_11TypePackVarEEENS1_5ErrorIS5_EENS_12FreeTypePackENS_15GenericTypePackENS_8TypePackENS_16VariadicTypePackENS_15BlockedTypePackENS_28TypeFunctionInstanceTypePackEEE9tableDtorE, i64 0, i64 %14
  %16 = load ptr, ptr %15, align 8, !tbaa !241
  %17 = getelementptr inbounds nuw i8, ptr %4, i64 8
  invoke void %16(ptr noundef nonnull %17)
          to label %_ZN4Luau11TypePackVarD2Ev.exit unwind label %18

18:                                               ; preds = %12
  %19 = landingpad { ptr, i32 }
          catch ptr null
  %20 = extractvalue { ptr, i32 } %19, 0
  call void @__clang_call_terminate(ptr %20) #31
  unreachable

_ZN4Luau11TypePackVarD2Ev.exit:                   ; preds = %12
  %21 = load i32, ptr %5, align 8, !tbaa !291
  %22 = sext i32 %21 to i64
  %23 = getelementptr inbounds [8 x ptr], ptr @_ZN4Luau7VariantIJNS_9Unifiable5BoundIPKNS_11TypePackVarEEENS1_5ErrorIS5_EENS_12FreeTypePackENS_15GenericTypePackENS_8TypePackENS_16VariadicTypePackENS_15BlockedTypePackENS_28TypeFunctionInstanceTypePackEEE9tableDtorE, i64 0, i64 %22
  %24 = load ptr, ptr %23, align 8, !tbaa !241
  invoke void %24(ptr noundef nonnull %9)
          to label %_ZN4Luau7VariantIJNS_9Unifiable5BoundIPKNS_11TypePackVarEEENS1_5ErrorIS5_EENS_12FreeTypePackENS_15GenericTypePackENS_8TypePackENS_16VariadicTypePackENS_15BlockedTypePackENS_28TypeFunctionInstanceTypePackEEED2Ev.exit unwind label %25

25:                                               ; preds = %_ZN4Luau11TypePackVarD2Ev.exit
  %26 = landingpad { ptr, i32 }
          catch ptr null
  %27 = extractvalue { ptr, i32 } %26, 0
  call void @__clang_call_terminate(ptr %27) #31
  unreachable

_ZN4Luau7VariantIJNS_9Unifiable5BoundIPKNS_11TypePackVarEEENS1_5ErrorIS5_EENS_12FreeTypePackENS_15GenericTypePackENS_8TypePackENS_16VariadicTypePackENS_15BlockedTypePackENS_28TypeFunctionInstanceTypePackEEED2Ev.exit: ; preds = %_ZN4Luau11TypePackVarD2Ev.exit
  call void @llvm.lifetime.end.p0(i64 72, ptr nonnull %5) #28
  call void @llvm.lifetime.end.p0(i64 24, ptr nonnull %3) #28
  ret ptr %11

28:                                               ; preds = %2
  %29 = landingpad { ptr, i32 }
          cleanup
  br label %_ZN4Luau11TypePackVarD2Ev.exit5

30:                                               ; preds = %10
  %31 = landingpad { ptr, i32 }
          cleanup
  %32 = load i32, ptr %4, align 8, !tbaa !291
  %33 = sext i32 %32 to i64
  %34 = getelementptr inbounds [8 x ptr], ptr @_ZN4Luau7VariantIJNS_9Unifiable5BoundIPKNS_11TypePackVarEEENS1_5ErrorIS5_EENS_12FreeTypePackENS_15GenericTypePackENS_8TypePackENS_16VariadicTypePackENS_15BlockedTypePackENS_28TypeFunctionInstanceTypePackEEE9tableDtorE, i64 0, i64 %33
  %35 = load ptr, ptr %34, align 8, !tbaa !241
  %36 = getelementptr inbounds nuw i8, ptr %4, i64 8
  invoke void %35(ptr noundef nonnull %36)
          to label %_ZN4Luau11TypePackVarD2Ev.exit5 unwind label %37

37:                                               ; preds = %30
  %38 = landingpad { ptr, i32 }
          catch ptr null
  %39 = extractvalue { ptr, i32 } %38, 0
  call void @__clang_call_terminate(ptr %39) #31
  unreachable

_ZN4Luau11TypePackVarD2Ev.exit5:                  ; preds = %30, %28
  %.pn = phi { ptr, i32 } [ %29, %28 ], [ %31, %30 ]
  %40 = load i32, ptr %5, align 8, !tbaa !291
  %41 = sext i32 %40 to i64
  %42 = getelementptr inbounds [8 x ptr], ptr @_ZN4Luau7VariantIJNS_9Unifiable5BoundIPKNS_11TypePackVarEEENS1_5ErrorIS5_EENS_12FreeTypePackENS_15GenericTypePackENS_8TypePackENS_16VariadicTypePackENS_15BlockedTypePackENS_28TypeFunctionInstanceTypePackEEE9tableDtorE, i64 0, i64 %41
  %43 = load ptr, ptr %42, align 8, !tbaa !241
  invoke void %43(ptr noundef nonnull %9)
          to label %_ZN4Luau7VariantIJNS_9Unifiable5BoundIPKNS_11TypePackVarEEENS1_5ErrorIS5_EENS_12FreeTypePackENS_15GenericTypePackENS_8TypePackENS_16VariadicTypePackENS_15BlockedTypePackENS_28TypeFunctionInstanceTypePackEEED2Ev.exit6 unwind label %44

44:                                               ; preds = %_ZN4Luau11TypePackVarD2Ev.exit5
  %45 = landingpad { ptr, i32 }
          catch ptr null
  %46 = extractvalue { ptr, i32 } %45, 0
  call void @__clang_call_terminate(ptr %46) #31
  unreachable

_ZN4Luau7VariantIJNS_9Unifiable5BoundIPKNS_11TypePackVarEEENS1_5ErrorIS5_EENS_12FreeTypePackENS_15GenericTypePackENS_8TypePackENS_16VariadicTypePackENS_15BlockedTypePackENS_28TypeFunctionInstanceTypePackEEED2Ev.exit6: ; preds = %_ZN4Luau11TypePackVarD2Ev.exit5
  call void @llvm.lifetime.end.p0(i64 72, ptr nonnull %5) #28
  call void @llvm.lifetime.end.p0(i64 24, ptr nonnull %3) #28
  resume { ptr, i32 } %.pn
}